; Function Attrs: nounwind uwtable
define zeroext i8 @l_Lean_Compiler_LCNF_FunDecl_dependsOn(ptr noundef readonly captures(none) %0, ptr noundef %1) local_unnamed_addr #0 {
  %3 = getelementptr inbounds nuw i8, ptr %0, i64 32
  %4 = load ptr, ptr %3, align 8, !tbaa !10
  %5 = tail call zeroext i8 @l_Lean_Expr_hasAnyFVar_visit___at___private_Lean_Compiler_LCNF_DependsOn_0__Lean_Compiler_LCNF_typeDepOn___spec__1(ptr noundef %1, ptr noundef %4)
  %6 = icmp eq i8 %5, 0
  br i1 %6, label %7, label %11

7:                                                ; preds = %2
  %8 = getelementptr inbounds nuw i8, ptr %0, i64 40
  %9 = load ptr, ptr %8, align 8, !tbaa !10
  %10 = tail call zeroext i8 @l___private_Lean_Compiler_LCNF_DependsOn_0__Lean_Compiler_LCNF_depOn(ptr noundef %9, ptr noundef %1)
  br label %11

11:                                               ; preds = %2, %7
  %.0 = phi i8 [ %10, %7 ], [ 1, %2 ]
  ret i8 %.0
}